target datalayout = "e-m:e-p270:32:32-p271:32:32-p272:64:64-i64:64-i128:128-f80:128-n8:16:32:64-S128"
target triple = "x86_64-pc-linux-gnu"

%struct._packet_info = type { ptr, ptr, i32, i32, %struct.nstime_t, %struct.nstime_t, %struct.nstime_t, i8, ptr, ptr, ptr, ptr, %struct._address, %struct._address, %struct._address, %struct._address, %struct._address, %struct._address, i32, ptr, i8, [3 x i8], %struct.anon, i32, i32, i32, i32, ptr, i8, ptr, ptr, i16, i16, i32, i32, i16, i32, i32, ptr, ptr, ptr, i8, i8, i16, i16, i16, i32, i16, i16, ptr, ptr, ptr, ptr, ptr, i32, i32 }
%struct.nstime_t = type { i64, i32 }
%struct._address = type { i32, i32, ptr, ptr }
%struct.anon = type { i8, [3 x i8] }

@hf_rtmp_net = internal global i32 0, align 4
@hf_rtmp_node = internal global i32 0, align 4
@hf_rtmp_node_len = internal global i32 0, align 4
@hf_rtmp_tuple_net = internal global i32 0, align 4
@hf_rtmp_tuple_range_start = internal global i32 0, align 4
@hf_rtmp_tuple_range_end = internal global i32 0, align 4
@hf_rtmp_tuple_dist = internal global i32 0, align 4
@hf_rtmp_version = internal global i32 0, align 4
@ett_rtmp = internal global i32 0, align 4
@ett_rtmp_tuple = internal global i32 0, align 4
@.str.234 = private unnamed_addr constant [5 x i8] c"RTMP\00", align 1
@proto_rtmp = internal global i32 0, align 4
@.str.391 = private unnamed_addr constant [32 x i8] c"Net: %u  Node Len: %u  Node: %u\00", align 1
@.str.392 = private unnamed_addr constant [69 x i8] c"Tuple %d:  Range Start: %u  Dist: %u  Range End: %u  Version: 0x%02x\00", align 1
@.str.393 = private unnamed_addr constant [52 x i8] c"Tuple %d:  Range Start: %u  Dist: %u  Range End: %u\00", align 1
@.str.394 = private unnamed_addr constant [29 x i8] c"Tuple %d:  Net: %u  Dist: %u\00", align 1

; Function Attrs: null_pointer_is_valid sspstrong uwtable
define internal i32 @dissect_rtmp_data(ptr noundef %0, ptr noundef %1, ptr noundef %2, ptr noundef %3) #1 {
  %5 = alloca ptr, align 8
  %6 = alloca ptr, align 8
  %7 = alloca ptr, align 8
  %8 = alloca ptr, align 8
  %9 = alloca ptr, align 8
  %10 = alloca ptr, align 8
  %11 = alloca i32, align 4
  %12 = alloca i16, align 2
  %13 = alloca i8, align 1
  %14 = alloca i8, align 1
  %15 = alloca i16, align 2
  %16 = alloca i32, align 4
  %17 = alloca ptr, align 8
  %18 = alloca i16, align 2
  %19 = alloca i8, align 1
  %20 = alloca i16, align 2
  %21 = alloca i8, align 1
  store ptr %0, ptr %5, align 8
  store ptr %1, ptr %6, align 8
  store ptr %2, ptr %7, align 8
  store ptr %3, ptr %8, align 8
  call void @llvm.lifetime.start.p0(i64 8, ptr %9) #11
  call void @llvm.lifetime.start.p0(i64 8, ptr %10) #11
  call void @llvm.lifetime.start.p0(i64 4, ptr %11) #11
  store i32 0, ptr %11, align 4
  call void @llvm.lifetime.start.p0(i64 2, ptr %12) #11
  call void @llvm.lifetime.start.p0(i64 1, ptr %13) #11
  call void @llvm.lifetime.start.p0(i64 1, ptr %14) #11
  call void @llvm.lifetime.start.p0(i64 2, ptr %15) #11
  call void @llvm.lifetime.start.p0(i64 4, ptr %16) #11
  %22 = load ptr, ptr %6, align 8
  %23 = getelementptr inbounds nuw %struct._packet_info, ptr %22, i32 0, i32 1
  %24 = load ptr, ptr %23, align 8
  call void @col_set_str(ptr noundef %24, i32 noundef 35, ptr noundef @.str.234)
  %25 = load ptr, ptr %6, align 8
  %26 = getelementptr inbounds nuw %struct._packet_info, ptr %25, i32 0, i32 1
  %27 = load ptr, ptr %26, align 8
  call void @col_clear(ptr noundef %27, i32 noundef 25)
  %28 = load ptr, ptr %5, align 8
  %29 = load i32, ptr %11, align 4
  %30 = call zeroext i16 @tvb_get_ntohs(ptr noundef %28, i32 noundef %29)
  store i16 %30, ptr %12, align 2
  %31 = load ptr, ptr %5, align 8
  %32 = load i32, ptr %11, align 4
  %33 = add i32 %32, 2
  %34 = call zeroext i8 @tvb_get_uint8(ptr noundef %31, i32 noundef %33)
  store i8 %34, ptr %14, align 1
  %35 = load i8, ptr %14, align 1
  %36 = zext i8 %35 to i32
  %37 = icmp sle i32 %36, 8
  br i1 %37, label %38, label %44

38:                                               ; preds = %4
  %39 = load ptr, ptr %5, align 8
  %40 = load i32, ptr %11, align 4
  %41 = add i32 %40, 3
  %42 = call zeroext i8 @tvb_get_uint8(ptr noundef %39, i32 noundef %41)
  %43 = zext i8 %42 to i16
  store i16 %43, ptr %15, align 2
  store i8 1, ptr %13, align 1
  br label %49

44:                                               ; preds = %4
  %45 = load ptr, ptr %5, align 8
  %46 = load i32, ptr %11, align 4
  %47 = add i32 %46, 3
  %48 = call zeroext i16 @tvb_get_ntohs(ptr noundef %45, i32 noundef %47)
  store i16 %48, ptr %15, align 2
  store i8 2, ptr %13, align 1
  br label %49

49:                                               ; preds = %44, %38
  %50 = load ptr, ptr %6, align 8
  %51 = getelementptr inbounds nuw %struct._packet_info, ptr %50, i32 0, i32 1
  %52 = load ptr, ptr %51, align 8
  %53 = load i16, ptr %12, align 2
  %54 = zext i16 %53 to i32
  %55 = load i8, ptr %14, align 1
  %56 = zext i8 %55 to i32
  %57 = load i16, ptr %15, align 2
  %58 = zext i16 %57 to i32
  call void (ptr, i32, ptr, ...) @col_add_fstr(ptr noundef %52, i32 noundef 25, ptr noundef @.str.391, i32 noundef %54, i32 noundef %56, i32 noundef %58)
  %59 = load ptr, ptr %7, align 8
  %60 = icmp ne ptr %59, null
  br i1 %60, label %61, label %241

61:                                               ; preds = %49
  %62 = load ptr, ptr %7, align 8
  %63 = load i32, ptr @proto_rtmp, align 4
  %64 = load ptr, ptr %5, align 8
  %65 = load i32, ptr %11, align 4
  %66 = call ptr @proto_tree_add_item(ptr noundef %62, i32 noundef %63, ptr noundef %64, i32 noundef %65, i32 noundef -1, i32 noundef 0)
  store ptr %66, ptr %10, align 8
  %67 = load ptr, ptr %10, align 8
  %68 = load i32, ptr @ett_rtmp, align 4
  %69 = call ptr @proto_item_add_subtree(ptr noundef %67, i32 noundef %68)
  store ptr %69, ptr %9, align 8
  %70 = load ptr, ptr %9, align 8
  %71 = load i32, ptr @hf_rtmp_net, align 4
  %72 = load ptr, ptr %5, align 8
  %73 = load i32, ptr %11, align 4
  %74 = load i16, ptr %12, align 2
  %75 = zext i16 %74 to i32
  %76 = call ptr @proto_tree_add_uint(ptr noundef %70, i32 noundef %71, ptr noundef %72, i32 noundef %73, i32 noundef 2, i32 noundef %75)
  %77 = load ptr, ptr %9, align 8
  %78 = load i32, ptr @hf_rtmp_node_len, align 4
  %79 = load ptr, ptr %5, align 8
  %80 = load i32, ptr %11, align 4
  %81 = add i32 %80, 2
  %82 = load i8, ptr %14, align 1
  %83 = zext i8 %82 to i32
  %84 = call ptr @proto_tree_add_uint(ptr noundef %77, i32 noundef %78, ptr noundef %79, i32 noundef %81, i32 noundef 1, i32 noundef %83)
  %85 = load ptr, ptr %9, align 8
  %86 = load i32, ptr @hf_rtmp_node, align 4
  %87 = load ptr, ptr %5, align 8
  %88 = load i32, ptr %11, align 4
  %89 = add i32 %88, 3
  %90 = load i8, ptr %13, align 1
  %91 = zext i8 %90 to i32
  %92 = load i16, ptr %15, align 2
  %93 = zext i16 %92 to i32
  %94 = call ptr @proto_tree_add_uint(ptr noundef %85, i32 noundef %86, ptr noundef %87, i32 noundef %89, i32 noundef %91, i32 noundef %93)
  %95 = load i8, ptr %13, align 1
  %96 = zext i8 %95 to i32
  %97 = add i32 3, %96
  %98 = load i32, ptr %11, align 4
  %99 = add i32 %98, %97
  store i32 %99, ptr %11, align 4
  %100 = load ptr, ptr %5, align 8
  %101 = load i32, ptr %11, align 4
  %102 = call zeroext i16 @tvb_get_ntohs(ptr noundef %100, i32 noundef %101)
  %103 = zext i16 %102 to i32
  %104 = icmp eq i32 %103, 0
  br i1 %104, label %105, label %114

105:                                              ; preds = %61
  %106 = load ptr, ptr %9, align 8
  %107 = load i32, ptr @hf_rtmp_version, align 4
  %108 = load ptr, ptr %5, align 8
  %109 = load i32, ptr %11, align 4
  %110 = add i32 %109, 2
  %111 = call ptr @proto_tree_add_item(ptr noundef %106, i32 noundef %107, ptr noundef %108, i32 noundef %110, i32 noundef 1, i32 noundef 0)
  %112 = load i32, ptr %11, align 4
  %113 = add i32 %112, 3
  store i32 %113, ptr %11, align 4
  br label %114

114:                                              ; preds = %105, %61
  store i32 1, ptr %16, align 4
  br label %115

115:                                              ; preds = %237, %114
  %116 = load ptr, ptr %5, align 8
  %117 = load i32, ptr %11, align 4
  %118 = call zeroext i1 @tvb_offset_exists(ptr noundef %116, i32 noundef %117)
  br i1 %118, label %119, label %240

119:                                              ; preds = %115
  call void @llvm.lifetime.start.p0(i64 8, ptr %17) #11
  call void @llvm.lifetime.start.p0(i64 2, ptr %18) #11
  call void @llvm.lifetime.start.p0(i64 1, ptr %19) #11
  call void @llvm.lifetime.start.p0(i64 2, ptr %20) #11
  call void @llvm.lifetime.start.p0(i64 1, ptr %21) #11
  %120 = load ptr, ptr %5, align 8
  %121 = load i32, ptr %11, align 4
  %122 = call zeroext i16 @tvb_get_ntohs(ptr noundef %120, i32 noundef %121)
  store i16 %122, ptr %18, align 2
  %123 = load ptr, ptr %5, align 8
  %124 = load i32, ptr %11, align 4
  %125 = add i32 %124, 2
  %126 = call zeroext i8 @tvb_get_uint8(ptr noundef %123, i32 noundef %125)
  store i8 %126, ptr %19, align 1
  %127 = load i8, ptr %19, align 1
  %128 = zext i8 %127 to i32
  %129 = and i32 %128, 128
  %130 = icmp ne i32 %129, 0
  br i1 %130, label %131, label %209

131:                                              ; preds = %119
  %132 = load ptr, ptr %5, align 8
  %133 = load i32, ptr %11, align 4
  %134 = add i32 %133, 3
  %135 = call zeroext i16 @tvb_get_ntohs(ptr noundef %132, i32 noundef %134)
  store i16 %135, ptr %20, align 2
  %136 = load ptr, ptr %5, align 8
  %137 = load i32, ptr %11, align 4
  %138 = add i32 %137, 5
  %139 = call zeroext i8 @tvb_get_uint8(ptr noundef %136, i32 noundef %138)
  store i8 %139, ptr %21, align 1
  %140 = load i32, ptr %16, align 4
  %141 = icmp eq i32 %140, 1
  br i1 %141, label %142, label %158

142:                                              ; preds = %131
  %143 = load ptr, ptr %9, align 8
  %144 = load ptr, ptr %5, align 8
  %145 = load i32, ptr %11, align 4
  %146 = load i32, ptr @ett_rtmp_tuple, align 4
  %147 = load i32, ptr %16, align 4
  %148 = load i16, ptr %18, align 2
  %149 = zext i16 %148 to i32
  %150 = load i8, ptr %19, align 1
  %151 = zext i8 %150 to i32
  %152 = and i32 %151, 127
  %153 = load i16, ptr %20, align 2
  %154 = zext i16 %153 to i32
  %155 = load i8, ptr %21, align 1
  %156 = zext i8 %155 to i32
  %157 = call ptr (ptr, ptr, i32, i32, i32, ptr, ptr, ...) @proto_tree_add_subtree_format(ptr noundef %143, ptr noundef %144, i32 noundef %145, i32 noundef 6, i32 noundef %146, ptr noundef null, ptr noundef @.str.392, i32 noundef %147, i32 noundef %149, i32 noundef %152, i32 noundef %154, i32 noundef %156)
  store ptr %157, ptr %17, align 8
  br label %172

158:                                              ; preds = %131
  %159 = load ptr, ptr %9, align 8
  %160 = load ptr, ptr %5, align 8
  %161 = load i32, ptr %11, align 4
  %162 = load i32, ptr @ett_rtmp_tuple, align 4
  %163 = load i32, ptr %16, align 4
  %164 = load i16, ptr %18, align 2
  %165 = zext i16 %164 to i32
  %166 = load i8, ptr %19, align 1
  %167 = zext i8 %166 to i32
  %168 = and i32 %167, 127
  %169 = load i16, ptr %20, align 2
  %170 = zext i16 %169 to i32
  %171 = call ptr (ptr, ptr, i32, i32, i32, ptr, ptr, ...) @proto_tree_add_subtree_format(ptr noundef %159, ptr noundef %160, i32 noundef %161, i32 noundef 6, i32 noundef %162, ptr noundef null, ptr noundef @.str.393, i32 noundef %163, i32 noundef %165, i32 noundef %168, i32 noundef %170)
  store ptr %171, ptr %17, align 8
  br label %172

172:                                              ; preds = %158, %142
  %173 = load ptr, ptr %17, align 8
  %174 = load i32, ptr @hf_rtmp_tuple_range_start, align 4
  %175 = load ptr, ptr %5, align 8
  %176 = load i32, ptr %11, align 4
  %177 = load i16, ptr %18, align 2
  %178 = zext i16 %177 to i32
  %179 = call ptr @proto_tree_add_uint(ptr noundef %173, i32 noundef %174, ptr noundef %175, i32 noundef %176, i32 noundef 2, i32 noundef %178)
  %180 = load ptr, ptr %17, align 8
  %181 = load i32, ptr @hf_rtmp_tuple_dist, align 4
  %182 = load ptr, ptr %5, align 8
  %183 = load i32, ptr %11, align 4
  %184 = add i32 %183, 2
  %185 = load i8, ptr %19, align 1
  %186 = zext i8 %185 to i32
  %187 = and i32 %186, 127
  %188 = call ptr @proto_tree_add_uint(ptr noundef %180, i32 noundef %181, ptr noundef %182, i32 noundef %184, i32 noundef 1, i32 noundef %187)
  %189 = load ptr, ptr %17, align 8
  %190 = load i32, ptr @hf_rtmp_tuple_range_end, align 4
  %191 = load ptr, ptr %5, align 8
  %192 = load i32, ptr %11, align 4
  %193 = add i32 %192, 3
  %194 = call ptr @proto_tree_add_item(ptr noundef %189, i32 noundef %190, ptr noundef %191, i32 noundef %193, i32 noundef 2, i32 noundef 0)
  %195 = load i32, ptr %16, align 4
  %196 = icmp eq i32 %195, 1
  br i1 %196, label %197, label %206

197:                                              ; preds = %172
  %198 = load ptr, ptr %17, align 8
  %199 = load i32, ptr @hf_rtmp_version, align 4
  %200 = load ptr, ptr %5, align 8
  %201 = load i32, ptr %11, align 4
  %202 = add i32 %201, 5
  %203 = load i8, ptr %21, align 1
  %204 = zext i8 %203 to i32
  %205 = call ptr @proto_tree_add_uint(ptr noundef %198, i32 noundef %199, ptr noundef %200, i32 noundef %202, i32 noundef 1, i32 noundef %204)
  br label %206

206:                                              ; preds = %197, %172
  %207 = load i32, ptr %11, align 4
  %208 = add i32 %207, 6
  store i32 %208, ptr %11, align 4
  br label %237

209:                                              ; preds = %119
  %210 = load ptr, ptr %9, align 8
  %211 = load ptr, ptr %5, align 8
  %212 = load i32, ptr %11, align 4
  %213 = load i32, ptr @ett_rtmp_tuple, align 4
  %214 = load i32, ptr %16, align 4
  %215 = load i16, ptr %18, align 2
  %216 = zext i16 %215 to i32
  %217 = load i8, ptr %19, align 1
  %218 = zext i8 %217 to i32
  %219 = call ptr (ptr, ptr, i32, i32, i32, ptr, ptr, ...) @proto_tree_add_subtree_format(ptr noundef %210, ptr noundef %211, i32 noundef %212, i32 noundef 3, i32 noundef %213, ptr noundef null, ptr noundef @.str.394, i32 noundef %214, i32 noundef %216, i32 noundef %218)
  store ptr %219, ptr %17, align 8
  %220 = load ptr, ptr %17, align 8
  %221 = load i32, ptr @hf_rtmp_tuple_net, align 4
  %222 = load ptr, ptr %5, align 8
  %223 = load i32, ptr %11, align 4
  %224 = load i16, ptr %18, align 2
  %225 = zext i16 %224 to i32
  %226 = call ptr @proto_tree_add_uint(ptr noundef %220, i32 noundef %221, ptr noundef %222, i32 noundef %223, i32 noundef 2, i32 noundef %225)
  %227 = load ptr, ptr %17, align 8
  %228 = load i32, ptr @hf_rtmp_tuple_dist, align 4
  %229 = load ptr, ptr %5, align 8
  %230 = load i32, ptr %11, align 4
  %231 = add i32 %230, 2
  %232 = load i8, ptr %19, align 1
  %233 = zext i8 %232 to i32
  %234 = call ptr @proto_tree_add_uint(ptr noundef %227, i32 noundef %228, ptr noundef %229, i32 noundef %231, i32 noundef 1, i32 noundef %233)
  %235 = load i32, ptr %11, align 4
  %236 = add i32 %235, 3
  store i32 %236, ptr %11, align 4
  br label %237

237:                                              ; preds = %209, %206
  %238 = load i32, ptr %16, align 4
  %239 = add i32 %238, 1
  store i32 %239, ptr %16, align 4
  call void @llvm.lifetime.end.p0(i64 1, ptr %21) #11
  call void @llvm.lifetime.end.p0(i64 2, ptr %20) #11
  call void @llvm.lifetime.end.p0(i64 1, ptr %19) #11
  call void @llvm.lifetime.end.p0(i64 2, ptr %18) #11
  call void @llvm.lifetime.end.p0(i64 8, ptr %17) #11
  br label %115, !llvm.loop !14

240:                                              ; preds = %115
  br label %241

241:                                              ; preds = %240, %49
  %242 = load ptr, ptr %5, align 8
  %243 = call i32 @tvb_captured_length(ptr noundef %242)
  call void @llvm.lifetime.end.p0(i64 4, ptr %16) #11
  call void @llvm.lifetime.end.p0(i64 2, ptr %15) #11
  call void @llvm.lifetime.end.p0(i64 1, ptr %14) #11
  call void @llvm.lifetime.end.p0(i64 1, ptr %13) #11
  call void @llvm.lifetime.end.p0(i64 2, ptr %12) #11
  call void @llvm.lifetime.end.p0(i64 4, ptr %11) #11
  call void @llvm.lifetime.end.p0(i64 8, ptr %10) #11
  call void @llvm.lifetime.end.p0(i64 8, ptr %9) #11
  ret i32 %243
}