; Function Attrs: null_pointer_is_valid sspstrong uwtable
define internal i32 @dissect_rtmp_data(ptr noundef %0, ptr noundef readonly captures(none) %1, ptr noundef %2, ptr readnone captures(none) %3) #1 {
  %5 = getelementptr inbounds nuw i8, ptr %1, i64 8
  %6 = load ptr, ptr %5, align 8
  tail call void @col_set_str(ptr noundef %6, i32 noundef 35, ptr noundef nonnull @.str.234)
  %7 = load ptr, ptr %5, align 8
  tail call void @col_clear(ptr noundef %7, i32 noundef 25)
  %8 = tail call zeroext i16 @tvb_get_ntohs(ptr noundef %0, i32 noundef 0)
  %9 = tail call zeroext i8 @tvb_get_uint8(ptr noundef %0, i32 noundef 2)
  %10 = zext i8 %9 to i32
  %11 = icmp ult i8 %9, 9
  br i1 %11, label %12, label %15

12:                                               ; preds = %4
  %13 = tail call zeroext i8 @tvb_get_uint8(ptr noundef %0, i32 noundef 3)
  %14 = zext i8 %13 to i16
  br label %17

15:                                               ; preds = %4
  %16 = tail call zeroext i16 @tvb_get_ntohs(ptr noundef %0, i32 noundef 3)
  br label %17

17:                                               ; preds = %15, %12
  %.0102 = phi i16 [ %14, %12 ], [ %16, %15 ]
  %.0101 = phi i32 [ 1, %12 ], [ 2, %15 ]
  %18 = load ptr, ptr %5, align 8
  %19 = zext i16 %8 to i32
  %20 = zext i16 %.0102 to i32
  tail call void (ptr, i32, ptr, ...) @col_add_fstr(ptr noundef %18, i32 noundef 25, ptr noundef nonnull @.str.391, i32 noundef %19, i32 noundef %10, i32 noundef %20)
  %.not = icmp eq ptr %2, null
  br i1 %.not, label %.loopexit, label %21

21:                                               ; preds = %17
  %22 = load i32, ptr @proto_rtmp, align 4
  %23 = tail call ptr @proto_tree_add_item(ptr noundef nonnull %2, i32 noundef %22, ptr noundef %0, i32 noundef 0, i32 noundef -1, i32 noundef 0)
  %24 = load i32, ptr @ett_rtmp, align 4
  %25 = tail call ptr @proto_item_add_subtree(ptr noundef %23, i32 noundef %24)
  %26 = load i32, ptr @hf_rtmp_net, align 4
  %27 = tail call ptr @proto_tree_add_uint(ptr noundef %25, i32 noundef %26, ptr noundef %0, i32 noundef 0, i32 noundef 2, i32 noundef %19)
  %28 = load i32, ptr @hf_rtmp_node_len, align 4
  %29 = tail call ptr @proto_tree_add_uint(ptr noundef %25, i32 noundef %28, ptr noundef %0, i32 noundef 2, i32 noundef 1, i32 noundef %10)
  %30 = load i32, ptr @hf_rtmp_node, align 4
  %31 = tail call ptr @proto_tree_add_uint(ptr noundef %25, i32 noundef %30, ptr noundef %0, i32 noundef 3, i32 noundef %.0101, i32 noundef %20)
  %32 = add nuw nsw i32 %.0101, 3
  %33 = tail call zeroext i16 @tvb_get_ntohs(ptr noundef %0, i32 noundef %32)
  %34 = icmp eq i16 %33, 0
  br i1 %34, label %35, label %40

35:                                               ; preds = %21
  %36 = load i32, ptr @hf_rtmp_version, align 4
  %37 = add nuw nsw i32 %.0101, 5
  %38 = tail call ptr @proto_tree_add_item(ptr noundef %25, i32 noundef %36, ptr noundef %0, i32 noundef %37, i32 noundef 1, i32 noundef 0)
  %39 = add nuw nsw i32 %.0101, 6
  br label %40

40:                                               ; preds = %35, %21
  %.0 = phi i32 [ %39, %35 ], [ %32, %21 ]
  %41 = tail call zeroext i1 @tvb_offset_exists(ptr noundef %0, i32 noundef %.0)
  br i1 %41, label %.lr.ph, label %.loopexit

.lr.ph:                                           ; preds = %40, %80
  %.1109 = phi i32 [ %81, %80 ], [ %.0, %40 ]
  %.0103107 = phi i32 [ %82, %80 ], [ 1, %40 ]
  %42 = tail call zeroext i16 @tvb_get_ntohs(ptr noundef %0, i32 noundef %.1109)
  %43 = add i32 %.1109, 2
  %44 = tail call zeroext i8 @tvb_get_uint8(ptr noundef %0, i32 noundef %43)
  %45 = zext i8 %44 to i32
  %.not106 = icmp sgt i8 %44, -1
  br i1 %.not106, label %72, label %46

46:                                               ; preds = %.lr.ph
  %47 = add i32 %.1109, 3
  %48 = tail call zeroext i16 @tvb_get_ntohs(ptr noundef %0, i32 noundef %47)
  %49 = add i32 %.1109, 5
  %50 = tail call zeroext i8 @tvb_get_uint8(ptr noundef %0, i32 noundef %49)
  %51 = icmp eq i32 %.0103107, 1
  %52 = load i32, ptr @ett_rtmp_tuple, align 4
  %53 = zext i16 %42 to i32
  %54 = and i32 %45, 127
  %55 = zext i16 %48 to i32
  br i1 %51, label %56, label %59

56:                                               ; preds = %46
  %57 = zext i8 %50 to i32
  %58 = tail call ptr (ptr, ptr, i32, i32, i32, ptr, ptr, ...) @proto_tree_add_subtree_format(ptr noundef %25, ptr noundef %0, i32 noundef %.1109, i32 noundef 6, i32 noundef %52, ptr noundef null, ptr noundef nonnull @.str.392, i32 noundef 1, i32 noundef %53, i32 noundef %54, i32 noundef %55, i32 noundef %57)
  br label %61

59:                                               ; preds = %46
  %60 = tail call ptr (ptr, ptr, i32, i32, i32, ptr, ptr, ...) @proto_tree_add_subtree_format(ptr noundef %25, ptr noundef %0, i32 noundef %.1109, i32 noundef 6, i32 noundef %52, ptr noundef null, ptr noundef nonnull @.str.393, i32 noundef %.0103107, i32 noundef %53, i32 noundef %54, i32 noundef %55)
  br label %61

61:                                               ; preds = %59, %56
  %.0104 = phi ptr [ %60, %59 ], [ %58, %56 ]
  %62 = load i32, ptr @hf_rtmp_tuple_range_start, align 4
  %63 = tail call ptr @proto_tree_add_uint(ptr noundef %.0104, i32 noundef %62, ptr noundef %0, i32 noundef %.1109, i32 noundef 2, i32 noundef %53)
  %64 = load i32, ptr @hf_rtmp_tuple_dist, align 4
  %65 = tail call ptr @proto_tree_add_uint(ptr noundef %.0104, i32 noundef %64, ptr noundef %0, i32 noundef %43, i32 noundef 1, i32 noundef %54)
  %66 = load i32, ptr @hf_rtmp_tuple_range_end, align 4
  %67 = tail call ptr @proto_tree_add_item(ptr noundef %.0104, i32 noundef %66, ptr noundef %0, i32 noundef %47, i32 noundef 2, i32 noundef 0)
  br i1 %51, label %68, label %80

68:                                               ; preds = %61
  %69 = load i32, ptr @hf_rtmp_version, align 4
  %70 = zext i8 %50 to i32
  %71 = tail call ptr @proto_tree_add_uint(ptr noundef %.0104, i32 noundef %69, ptr noundef %0, i32 noundef %49, i32 noundef 1, i32 noundef %70)
  br label %80

72:                                               ; preds = %.lr.ph
  %73 = load i32, ptr @ett_rtmp_tuple, align 4
  %74 = zext i16 %42 to i32
  %75 = tail call ptr (ptr, ptr, i32, i32, i32, ptr, ptr, ...) @proto_tree_add_subtree_format(ptr noundef %25, ptr noundef %0, i32 noundef %.1109, i32 noundef 3, i32 noundef %73, ptr noundef null, ptr noundef nonnull @.str.394, i32 noundef %.0103107, i32 noundef %74, i32 noundef %45)
  %76 = load i32, ptr @hf_rtmp_tuple_net, align 4
  %77 = tail call ptr @proto_tree_add_uint(ptr noundef %75, i32 noundef %76, ptr noundef %0, i32 noundef %.1109, i32 noundef 2, i32 noundef %74)
  %78 = load i32, ptr @hf_rtmp_tuple_dist, align 4
  %79 = tail call ptr @proto_tree_add_uint(ptr noundef %75, i32 noundef %78, ptr noundef %0, i32 noundef %43, i32 noundef 1, i32 noundef %45)
  br label %80

80:                                               ; preds = %61, %68, %72
  %.sink = phi i32 [ 3, %72 ], [ 6, %68 ], [ 6, %61 ]
  %81 = add i32 %.1109, %.sink
  %82 = add i32 %.0103107, 1
  %83 = tail call zeroext i1 @tvb_offset_exists(ptr noundef %0, i32 noundef %81)
  br i1 %83, label %.lr.ph, label %.loopexit, !llvm.loop !13

.loopexit:                                        ; preds = %80, %40, %17
  %84 = tail call i32 @tvb_captured_length(ptr noundef %0)
  ret i32 %84
}